; Function Attrs: mustprogress uwtable
define void @_ZN5dtm_t11return_respENS_4respE(ptr noundef nonnull align 8 dereferenceable(928) %0, i64 %1) local_unnamed_addr #0 align 2 {
  %3 = getelementptr inbounds i8, ptr %0, i64 884
  store i64 %1, ptr %3, align 4
  %4 = tail call noundef ptr @_ZN9context_t7currentEv()
  %5 = getelementptr inbounds i8, ptr %0, i64 728
  store ptr %4, ptr %5, align 8
  %6 = getelementptr inbounds i8, ptr %0, i64 696
  tail call void @_ZN9context_t9switch_toEv(ptr noundef nonnull align 8 dereferenceable(32) %6)
  ret void
}